target datalayout = "e-m:e-p270:32:32-p271:32:32-p272:64:64-i64:64-i128:128-f80:128-n8:16:32:64-S128"
target triple = "x86_64-pc-linux-gnu"

@proto_register_srt.ett = internal global [3 x ptr] [ptr @ett_srt, ptr @ett_srt_handshake_ext_flags, ptr @ett_srt_handshake_ext_field_flags], align 16
@.str.167 = private unnamed_addr constant [13 x i8] c"SRT Protocol\00", align 1
@.str.168 = private unnamed_addr constant [4 x i8] c"SRT\00", align 1
@.str.169 = private unnamed_addr constant [4 x i8] c"srt\00", align 1
@proto_srt = internal global i32 0, align 4
@srt_udp_handle = internal global ptr null, align 8

; Function Attrs: null_pointer_is_valid sspstrong uwtable
define hidden void @proto_register_srt() #0 {
  %1 = alloca ptr, align 8
  call void @llvm.lifetime.start.p0(i64 8, ptr %1) #4
  %2 = call i32 @proto_register_protocol(ptr noundef @.str.167, ptr noundef @.str.168, ptr noundef @.str.169)
  store i32 %2, ptr @proto_srt, align 4
  %3 = load i32, ptr @proto_srt, align 4
  call void @proto_register_field_array(i32 noundef %3, ptr noundef @proto_register_srt.hf, i32 noundef 75)
  call void @proto_register_subtree_array(ptr noundef @proto_register_srt.ett, i32 noundef 3)
  %4 = load i32, ptr @proto_srt, align 4
  %5 = call ptr @expert_register_protocol(i32 noundef %4)
  store ptr %5, ptr %1, align 8
  %6 = load ptr, ptr %1, align 8
  call void @expert_register_field_array(ptr noundef %6, ptr noundef @proto_register_srt.ei, i32 noundef 4)
  %7 = load i32, ptr @proto_srt, align 4
  %8 = call ptr @register_dissector(ptr noundef @.str.169, ptr noundef @dissect_srt_udp, i32 noundef %7)
  store ptr %8, ptr @srt_udp_handle, align 8
  call void @llvm.lifetime.end.p0(i64 8, ptr %1) #4
  ret void
}